; Function Attrs: mustprogress uwtable
define void @_ZN7rocksdb18SstFileManagerImpl5CloseEv(ptr noundef nonnull align 8 dereferenceable(856) %0) local_unnamed_addr #4 align 2 personality ptr @__gxx_personality_v0 {
  %2 = getelementptr inbounds nuw i8, ptr %0, i64 56
  tail call void @_ZN7rocksdb4port5Mutex4LockEv(ptr noundef nonnull align 8 dereferenceable(40) %2)
  %3 = getelementptr inbounds nuw i8, ptr %0, i64 728
  %4 = load i8, ptr %3, align 8, !tbaa !48, !range !36, !noundef !37
  %5 = trunc nuw i8 %4 to i1
  br i1 %5, label %8, label %6

6:                                                ; preds = %1
  store i8 1, ptr %3, align 8, !tbaa !48
  %7 = getelementptr inbounds nuw i8, ptr %0, i64 672
  invoke void @_ZN7rocksdb4port7CondVar9SignalAllEv(ptr noundef nonnull align 8 dereferenceable(56) %7)
          to label %8 unwind label %16

8:                                                ; preds = %6, %1
  invoke void @_ZN7rocksdb4port5Mutex6UnlockEv(ptr noundef nonnull align 8 dereferenceable(40) %2)
          to label %_ZN7rocksdb9MutexLockD2Ev.exit unwind label %9

9:                                                ; preds = %8
  %10 = landingpad { ptr, i32 }
          catch ptr null
  %11 = extractvalue { ptr, i32 } %10, 0
  tail call void @__clang_call_terminate(ptr %11) #24
  unreachable

_ZN7rocksdb9MutexLockD2Ev.exit:                   ; preds = %8
  br i1 %5, label %21, label %12

12:                                               ; preds = %_ZN7rocksdb9MutexLockD2Ev.exit
  %13 = getelementptr inbounds nuw i8, ptr %0, i64 736
  %14 = load ptr, ptr %13, align 8, !tbaa !131
  %.not = icmp eq ptr %14, null
  br i1 %.not, label %21, label %15

15:                                               ; preds = %12
  tail call void @_ZNSt6thread4joinEv(ptr noundef nonnull align 8 dereferenceable(8) %14)
  br label %21

16:                                               ; preds = %6
  %17 = landingpad { ptr, i32 }
          cleanup
  invoke void @_ZN7rocksdb4port5Mutex6UnlockEv(ptr noundef nonnull align 8 dereferenceable(40) %2)
          to label %_ZN7rocksdb9MutexLockD2Ev.exit3 unwind label %18

18:                                               ; preds = %16
  %19 = landingpad { ptr, i32 }
          catch ptr null
  %20 = extractvalue { ptr, i32 } %19, 0
  tail call void @__clang_call_terminate(ptr %20) #24
  unreachable

_ZN7rocksdb9MutexLockD2Ev.exit3:                  ; preds = %16
  resume { ptr, i32 } %17

21:                                               ; preds = %_ZN7rocksdb9MutexLockD2Ev.exit, %15, %12
  ret void
}